	.text
	.file	"multiply.c"
	.globl	multiply                        # -- Begin function multiply
	.p2align	4, 0x90
	.type	multiply,@function
multiply:                               # @multiply
	.cfi_startproc
# %bb.0:
	pushq	%rbp
	.cfi_def_cfa_offset 16
	.cfi_offset %rbp, -16
	movq	%rsp, %rbp
	.cfi_def_cfa_register %rbp
	movl	%edi, -4(%rbp)
	movl	%esi, -8(%rbp)
	movl	-4(%rbp), %eax
	imull	-8(%rbp), %eax
	popq	%rbp
	.cfi_def_cfa %rsp, 8
	retq
.Lfunc_end0:
	.size	multiply, .Lfunc_end0-multiply
	.cfi_endproc
                                        # -- End function
	.globl	main                            # -- Begin function main
	.p2align	4, 0x90
	.type	main,@function
main:                                   # @main
	.cfi_startproc
# %bb.0:
	pushq	%rbp
	.cfi_def_cfa_offset 16
	.cfi_offset %rbp, -16
	movq	%rsp, %rbp
	.cfi_def_cfa_register %rbp
	subq	$16, %rsp
	movl	$0, -4(%rbp)
	movl	$2, -8(%rbp)
	movl	$21, -12(%rbp)
	movl	-8(%rbp), %edi
	movl	-12(%rbp), %esi
	callq	multiply
	movl	%eax, -16(%rbp)
	movl	-8(%rbp), %esi
	movl	-12(%rbp), %edx
	movl	-16(%rbp), %ecx
	leaq	.L.str(%rip), %rdi
	movb	$0, %al
	callq	printf@PLT
	xorl	%eax, %eax
	addq	$16, %rsp
	popq	%rbp
	.cfi_def_cfa %rsp, 8
	retq
.Lfunc_end1:
	.size	main, .Lfunc_end1-main
	.cfi_endproc
                                        # -- End function
	.type	.L.str,@object                  # @.str
	.section	.rodata.str1.1,"aMS",@progbits,1
.L.str:
	.asciz	"%d * %d = %d\n"
	.size	.L.str, 14

	.ident	"Ubuntu clang version 14.0.0-1ubuntu1.1"
	.section	".note.GNU-stack","",@progbits
	.addrsig
	.addrsig_sym multiply
	.addrsig_sym printf
